; Function Attrs: mustprogress nofree norecurse nosync nounwind willreturn memory(argmem: readwrite) uwtable
define noundef nonnull align 8 dereferenceable(64) ptr @_ZN6icu_7513LocaleMatcher7Builder14setFavorSubtagE20ULocMatchFavorSubtag(ptr noundef nonnull returned align 8 dereferenceable(64) %this, i32 noundef %subtag) local_unnamed_addr #0 align 2 {
entry:
  %0 = load i32, ptr %this, align 8
  %cmp.i = icmp slt i32 %0, 1
  br i1 %cmp.i, label %if.end, label %return

if.end:                                           ; preds = %entry
  %favor_ = getelementptr inbounds i8, ptr %this, i64 36
  store i32 %subtag, ptr %favor_, align 4
  br label %return

return:                                           ; preds = %entry, %if.end
  ret ptr %this
}